Microchip MPLAB XC8 Compiler V2.46

Linker command line:

-W-3 \
  --edf=C:\Program Files\Microchip\xc8\v2.46\pic\dat\20240104201356_en.msgs \
  -cn -h+dist/default/production\Washing_machine.X.production.sym \
  --cmf=dist/default/production\Washing_machine.X.production.cmf -z \
  -Q16F877A -oC:\Users\Tobi\AppData\Local\Temp\xcAs9s0.\driver_tmp_3.o \
  --defsym=__MPLAB_BUILD=1 --fixupoverflow=error \
  -Mdist/default/production/Washing_machine.X.production.map \
  --md=C:\Users\Tobi\AppData\Local\Temp\xcAs9s0.\driver_tmp_0.dat -E1 \
  -ver=XC8 Compiler --acfsm=1493 -ACODE=00h-07FFhx4 -ASTRCODE=00h-01FFFh \
  -ASTRING=00h-0FFhx32 -ACONST=00h-0FFhx32 -AENTRY=00h-0FFhx32 \
  -ACOMMON=070h-07Fh -ABANK0=020h-06Fh -ABANK1=0A0h-0EFh \
  -ABANK2=0110h-016Fh -ABANK3=0190h-01EFh \
  -ARAM=020h-06Fh,0A0h-0EFh,0110h-016Fh,0190h-01EFh \
  -AABS1=020h-07Fh,0A0h-0EFh,0110h-016Fh,0190h-01EFh -ASFR0=00h-01Fh \
  -ASFR1=080h-09Fh -ASFR2=0100h-010Fh -ASFR3=0180h-018Fh \
  -ACONFIG=02007h-02007h -DCONFIG=2 -AIDLOC=02000h-02003h -DIDLOC=2 \
  -AEEDATA=00h-0FFh/02100h -peeprom_data=EEDATA -DEEDATA=2 -DCODE=2 \
  -DSTRCODE=2 -DSTRING=2 -DCONST=2 -DENTRY=2 \
  -preset_vec=00h,intentry,sivt,init,end_init -ppowerup=CODE -pcinit=CODE \
  -pfunctab=ENTRY -k \
  C:\Users\Tobi\AppData\Local\Temp\xcAs9s0.\driver_tmp_12.o \
  dist/default/production\Washing_machine.X.production.o 

Object code version is 3.11

Machine type is 16F877A



                Name                               Link     Load   Length Selector   Space Scale
C:\Users\Tobi\AppData\Local\Temp\xcAs9s0.\driver_tmp_12.o
                end_init                              0        0        3        0       0
                config                             2007     2007        1        0       4
dist/default/production\Washing_machine.X.production.o
                cinit                               7E6      7E6       1A      FCC       0
                config                             2007     2007        1        0       4
                text11                              5D3      5D3       20      BA6       0
                text10                              690      690       53      D20       0
                text9                               57F      57F        B      AFE       0
                text8                               579      579        6      AF2       0
                text7                               58A      58A        B      B14       0
                text6                               5F3      5F3       28      BE6       0
                text5                               5AF      5AF       11      B5E       0
                text4                               595      595        D      B2A       0
                text3                               645      645       4B      C8A       0
                text2                               61B      61B       2A      C36       0
                text1                               736      736       B0      E6C       0
                maintext                            6E3      6E3       53      DC6       0
                cstackCOMMON                         70       70        C       70       1
                inittext                            5C0      5C0       13      B80       0
                dataBANK0                            20       20        D       20       1
                bssBANK0                             2D       2D        1       20       1
                dataCOMMON                           7D       7D        1       70       1
                bssCOMMON                            7C       7C        1       70       1
                strings                               3        3       BA        6       0
                idataBANK0                          5A2      5A2        D      B44       0
                idataCOMMON                         578      578        1      AF0       0

TOTAL           Name                               Link     Load   Length     Space
        CLASS   CODE           
                end_init                              0        0        3         0
                cinit                               7E6      7E6       1A         0
                text11                              5D3      5D3       20         0
                text10                              690      690       53         0
                text9                               57F      57F        B         0
                text8                               579      579        6         0
                text7                               58A      58A        B         0
                text6                               5F3      5F3       28         0
                text5                               5AF      5AF       11         0
                text4                               595      595        D         0
                text3                               645      645       4B         0
                text2                               61B      61B       2A         0
                text1                               736      736       B0         0
                maintext                            6E3      6E3       53         0
                inittext                            5C0      5C0       13         0
                idataBANK0                          5A2      5A2        D         0
                idataCOMMON                         578      578        1         0

        CLASS   STRCODE        

        CLASS   STRING         
                strings                               3        3       BA         0

        CLASS   CONST          

        CLASS   ENTRY          

        CLASS   COMMON         
                cstackCOMMON                         70       70        C         1
                dataCOMMON                           7D       7D        1         1
                bssCOMMON                            7C       7C        1         1

        CLASS   BANK0          
                dataBANK0                            20       20        D         1
                bssBANK0                             2D       2D        1         1

        CLASS   BANK1          

        CLASS   BANK2          

        CLASS   BANK3          

        CLASS   RAM            

        CLASS   ABS1           
                abs_s1                               7E       7E        2         1

        CLASS   SFR0           

        CLASS   SFR1           

        CLASS   SFR2           

        CLASS   SFR3           

        CLASS   CONFIG         
                config                             2007     2007        1         4

        CLASS   IDLOC          

        CLASS   EEDATA         

        CLASS   HEAP           

        CLASS   STACK          



SEGMENTS        Name                           Load    Length   Top    Selector   Space  Class     Delta

                reset_vec                      000000  000003  000003         0       0  CODE        2
                strings                        000003  0000BA  0000BD         6       0  STRING      2
                dataBANK0                      000020  00000E  00002E        20       1  BANK0       1
                cstackCOMMON                   000070  00000E  00007E        70       1  COMMON      1
                idataCOMMON                    000578  000001  000579       AF0       0  CODE        2
                text8                          000579  000006  00057F       AF2       0  CODE        2
                text9                          00057F  00000B  00058A       AFE       0  CODE        2
                text7                          00058A  00000B  000595       B14       0  CODE        2
                text4                          000595  00000D  0005A2       B2A       0  CODE        2
                idataBANK0                     0005A2  00000D  0005AF       B44       0  CODE        2
                text5                          0005AF  000011  0005C0       B5E       0  CODE        2
                inittext                       0005C0  000013  0005D3       B80       0  CODE        2
                text11                         0005D3  000020  0005F3       BA6       0  CODE        2
                text6                          0005F3  000028  00061B       BE6       0  CODE        2
                text2                          00061B  00002A  000645       C36       0  CODE        2
                text3                          000645  00004B  000690       C8A       0  CODE        2
                text10                         000690  000053  0006E3       D20       0  CODE        2
                maintext                       0006E3  000053  000736       DC6       0  CODE        2
                text1                          000736  0000B0  0007E6       E6C       0  CODE        2
                cinit                          0007E6  00001A  000800       FCC       0  CODE        2


UNUSED ADDRESS RANGES

        Name                Unused          Largest block    Delta
        BANK0            002E-006F             42           1
        BANK1            00A0-00EF             50           1
        BANK2            0110-016F             60           1
        BANK3            0190-01EF             60           1
        CODE             00BD-0577            4BB           2
                         0800-1FFF            800
        CONST            00BD-0577            100           2
                         0800-1FFF            100
        EEDATA           2100-21FF            100           2
        ENTRY            00BD-0577            100           2
                         0800-1FFF            100
        IDLOC            2000-2003              4           2
        RAM              002E-006F             42           1
                         00A0-00EF             50
                         0110-016F             60
                         0190-01EF             60
        SFR0             0000-001F             20           1
        SFR1             0080-009F             20           1
        SFR2             0100-010F             10           1
        SFR3             0180-018F             10           1
        STRCODE          00BD-0577            4BB           2
                         0800-1FFF           1800
        STRING           00BD-0577            100           2
                         0800-1FFF            100

                                  Symbol Table

_PORTB                           (abs)        0006
_PORTD                           (abs)        0008
_PR2                             (abs)        0092
_RE1                             (abs)        0049
_RE2                             (abs)        004A
_T2CKPS0                         (abs)        0090
_T2CKPS1                         (abs)        0091
_TMR2IE                          (abs)        0461
_TMR2ON                          (abs)        0092
_TRISB                           (abs)        0086
_TRISD                           (abs)        0088
_TRISE1                          (abs)        0449
_TRISE2                          (abs)        044A
__H__absolute__                  __absolute__ 0000
__Habs1                          abs1         0000
__Hbank0                         bank0        0000
__Hbank1                         bank1        0000
__Hbank2                         bank2        0000
__Hbank3                         bank3        0000
__HbssBANK0                      bssBANK0     0000
__HbssCOMMON                     bssCOMMON    0000
__Hcinit                         cinit        0800
__Hclrtext                       clrtext      0000
__Hcode                          code         0000
__Hcommon                        common       0000
__Hconfig                        config       2008
__HcstackCOMMON                  cstackCOMMON 0000
__HdataBANK0                     dataBANK0    0000
__HdataCOMMON                    dataCOMMON   0000
__Heeprom_data                   eeprom_data  0000
__Hend_init                      end_init     0003
__Hfunctab                       functab      0000
__Hheap                          heap         0000
__HidataBANK0                    idataBANK0   0000
__HidataCOMMON                   idataCOMMON  0000
__Hinit                          init         0000
__Hinittext                      inittext     0000
__Hintentry                      intentry     0000
__Hmaintext                      maintext     0000
__Hpowerup                       powerup      0000
__Hram                           ram          0000
__Hreset_vec                     reset_vec    0000
__Hsfr0                          sfr0         0000
__Hsfr1                          sfr1         0000
__Hsfr2                          sfr2         0000
__Hsfr3                          sfr3         0000
__Hsivt                          sivt         0000
__Hspace_0                       (abs)        0800
__Hspace_1                       (abs)        007E
__Hspace_2                       (abs)        0000
__Hspace_3                       (abs)        0000
__Hspace_4                       (abs)        400F
__Hstack                         stack        0000
__Hstrings                       strings      0000
__Htext                          text         0000
__L__absolute__                  __absolute__ 0000
__Labs1                          abs1         0000
__Lbank0                         bank0        0000
__Lbank1                         bank1        0000
__Lbank2                         bank2        0000
__Lbank3                         bank3        0000
__LbssBANK0                      bssBANK0     0000
__LbssCOMMON                     bssCOMMON    0000
__Lcinit                         cinit        07E6
__Lclrtext                       clrtext      0000
__Lcode                          code         0000
__Lcommon                        common       0000
__Lconfig                        config       0000
__LcstackCOMMON                  cstackCOMMON 0000
__LdataBANK0                     dataBANK0    0000
__LdataCOMMON                    dataCOMMON   0000
__Leeprom_data                   eeprom_data  0000
__Lend_init                      end_init     0000
__Lfunctab                       functab      0000
__Lheap                          heap         0000
__LidataBANK0                    idataBANK0   0000
__LidataCOMMON                   idataCOMMON  0000
__Linit                          init         0000
__Linittext                      inittext     0000
__Lintentry                      intentry     0000
__Lmaintext                      maintext     0000
__Lpowerup                       powerup      0000
__Lram                           ram          0000
__Lreset_vec                     reset_vec    0000
__Lsfr0                          sfr0         0000
__Lsfr1                          sfr1         0000
__Lsfr2                          sfr2         0000
__Lsfr3                          sfr3         0000
__Lsivt                          sivt         0000
__Lspace_0                       (abs)        0000
__Lspace_1                       (abs)        0000
__Lspace_2                       (abs)        0000
__Lspace_3                       (abs)        0000
__Lspace_4                       (abs)        0000
__Lstack                         stack        0000
__Lstrings                       strings      0000
__Ltext                          text         0000
__S0                             (abs)        0800
__S1                             (abs)        007E
__S3                             (abs)        0000
___heap_hi                       (abs)        0000
___heap_lo                       (abs)        0000
___int_sp                        stack        0000
___int_stack_hi                  stack        0000
___int_stack_lo                  stack        0000
___latbits                       (abs)        0002
___sp                            stack        0000
___stack_hi                      stack        0000
___stack_lo                      stack        0000
___stackhi                       (abs)        0000
___stacklo                       (abs)        0000
__end_of__initialization         cinit        07FC
__end_of__stringtab              strings      0009
__end_of_clcd_print              text6        061B
__end_of_clcd_putch              text5        05C0
__end_of_clcd_write              text11       05F3
__end_of_clear_screen            text4        05A2
__end_of_init_clcd               text9        058A
__end_of_init_config             text7        0595
__end_of_init_digital_keypad     text8        057F
__end_of_init_display_controller text10       06E3
__end_of_main                    maintext     0736
__end_of_power_on_screen         text3        0690
__end_of_read_digital_keypad     text2        0645
__end_of_washing_program_display text1        07E6
__initialization                 cinit        07E6
__pbssBANK0                      bssBANK0     002D
__pbssCOMMON                     bssCOMMON    007C
__pcstackCOMMON                  cstackCOMMON 0070
__pdataBANK0                     dataBANK0    0020
__pdataCOMMON                    dataCOMMON   007D
__pidataBANK0                    idataBANK0   05A2
__pidataCOMMON                   idataCOMMON  0578
__pmaintext                      maintext     06E3
__pstrings                       strings      0003
__ptext1                         text1        0736
__ptext10                        text10       0690
__ptext11                        text11       05D3
__ptext2                         text2        061B
__ptext3                         text3        0645
__ptext4                         text4        0595
__ptext5                         text5        05AF
__ptext6                         text6        05F3
__ptext7                         text7        058A
__ptext8                         text8        0579
__ptext9                         text9        057F
__stringbase                     strings      0008
__stringtab                      strings      0003
_clcd_print                      text6        05F3
_clcd_putch                      text5        05AF
_clcd_write                      text11       05D3
_clear_screen                    text4        0595
_init_clcd                       text9        057F
_init_config                     text7        058A
_init_digital_keypad             text8        0579
_init_display_controller         text10       0690
_main                            maintext     06E3
_operation_mode                  dataCOMMON   007D
_power_on_screen                 text3        0645
_program_num                     bssCOMMON    007C
_read_digital_keypad             text2        061B
_reset_flag                      bssBANK0     002D
_washing_prog                    dataBANK0    0020
_washing_program_display         text1        0736
btemp                            (abs)        007E
clcd_print@addr                  cstackCOMMON 0074
clcd_print@str                   cstackCOMMON 0075
clcd_putch@addr                  cstackCOMMON 0074
clcd_putch@data                  cstackCOMMON 0075
clcd_write@byte                  cstackCOMMON 0073
clcd_write@mode                  cstackCOMMON 0070
end_of_initialization            cinit        07FC
init_fetch0                      inittext     05C0
init_ram0                        inittext     05C4
intlevel0                        functab      0000
intlevel1                        functab      0000
intlevel2                        functab      0000
intlevel3                        functab      0000
intlevel4                        functab      0000
intlevel5                        functab      0000
main@key                         cstackCOMMON 007B
power_on_screen@i                cstackCOMMON 0079
power_on_screen@i_78             cstackCOMMON 007A
read_digital_keypad@mode         cstackCOMMON 0071
read_digital_keypad@once         dataBANK0    002C
reset_vec                        reset_vec    0000
start                            init         0000
start_initialization             cinit        07E6
washing_program_display@key      cstackCOMMON 0076
wtemp0                           (abs)        007E


MODULE INFORMATION

Module		Function		Class		Link	Load	Size
digital_keypad.c
		_init_digital_keypad		CODE           	0579	0000	6
		_read_digital_keypad		CODE           	061B	0000	42

digital_keypad.c estimated size: 48

shared
		__stringtab    		STRING         	0003	0000	6
		__initialization		CODE           	07E6	0000	22

shared estimated size: 28

clcd.c
		_clcd_write    		CODE           	05D3	0000	32
		_clear_screen  		CODE           	0595	0000	13
		_clcd_print    		CODE           	05F3	0000	40
		_clcd_putch    		CODE           	05AF	0000	17
		_init_display_controller		CODE           	0690	0000	83
		_init_clcd     		CODE           	057F	0000	11

clcd.c estimated size: 196

main.c
		_washing_program_display		CODE           	0736	0000	176
		_main          		CODE           	06E3	0000	83
		_power_on_screen		CODE           	0645	0000	75
		_init_config   		CODE           	058A	0000	11

main.c estimated size: 345

